; Function Attrs: mustprogress uwtable
define hidden void @_ZN4cvc58internal6theory2bv22BitblastProofGeneratorC2ERNS0_3EnvEPNS0_19TConvProofGeneratorE(ptr noundef nonnull align 8 dereferenceable(88) %0, ptr noundef nonnull align 1 %1, ptr noundef %2) unnamed_addr #3 align 2 personality ptr @__gxx_personality_v0 {
  tail call void @_ZN4cvc58internal14ProofGeneratorC2Ev(ptr noundef nonnull align 8 dereferenceable(8) %0)
  %4 = getelementptr inbounds nuw i8, ptr %0, i64 8
  invoke void @_ZN4cvc58internal6EnvObjC2ERNS0_3EnvE(ptr noundef nonnull align 8 dereferenceable(16) %4, ptr noundef nonnull align 1 %1)
          to label %5 unwind label %13

5:                                                ; preds = %3
  store ptr getelementptr inbounds nuw inrange(-16, 48) (i8, ptr @_ZTVN4cvc58internal6theory2bv22BitblastProofGeneratorE, i64 16), ptr %0, align 8, !tbaa !3
  store ptr getelementptr inbounds nuw inrange(-16, 16) (i8, ptr @_ZTVN4cvc58internal6theory2bv22BitblastProofGeneratorE, i64 80), ptr %4, align 8, !tbaa !3
  %6 = getelementptr inbounds nuw i8, ptr %0, i64 24
  store ptr %2, ptr %6, align 8, !tbaa !6
  %7 = getelementptr inbounds nuw i8, ptr %0, i64 32
  %8 = getelementptr inbounds nuw i8, ptr %0, i64 80
  store ptr %8, ptr %7, align 8, !tbaa !22
  %9 = getelementptr inbounds nuw i8, ptr %0, i64 40
  store i64 1, ptr %9, align 8, !tbaa !23
  %10 = getelementptr inbounds nuw i8, ptr %0, i64 48
  %11 = getelementptr inbounds nuw i8, ptr %0, i64 64
  tail call void @llvm.memset.p0.i64(ptr noundef nonnull align 8 dereferenceable(16) %10, i8 0, i64 16, i1 false)
  store float 1.000000e+00, ptr %11, align 8, !tbaa !24
  %12 = getelementptr inbounds nuw i8, ptr %0, i64 72
  tail call void @llvm.memset.p0.i64(ptr noundef nonnull align 8 dereferenceable(16) %12, i8 0, i64 16, i1 false)
  ret void

13:                                               ; preds = %3
  %14 = landingpad { ptr, i32 }
          cleanup
  tail call void @_ZN4cvc58internal14ProofGeneratorD2Ev(ptr noundef nonnull align 8 dereferenceable(8) %0) #21
  resume { ptr, i32 } %14
}